target datalayout = "e-m:e-p270:32:32-p271:32:32-p272:64:64-i64:64-i128:128-f80:128-n8:16:32:64-S128"
target triple = "x86_64-unknown-linux-gnu"

%struct.VirtIOBlockDataPlane = type { i8, i8, ptr, ptr, ptr, ptr }
%struct.VirtIOBlkConf = type { %struct.BlockConf, ptr, ptr, i32, i16, i16, i8, i8, i32, i32, i8 }
%struct.BlockConf = type { ptr, i32, i32, i32, i32, i32, i32, i32, i32, i32, i32, i32, i32, i32, i32, i8, i32, i32, i32, i32 }

; Function Attrs: nounwind sspstrong uwtable
define internal void @virtio_blk_data_plane_stop_bh(ptr noundef %opaque) #0 {
entry:
  %opaque.addr = alloca ptr, align 8
  %s = alloca ptr, align 8
  %i = alloca i32, align 4
  %vq = alloca ptr, align 8
  %host_notifier = alloca ptr, align 8
  store ptr %opaque, ptr %opaque.addr, align 8
  %0 = load ptr, ptr %opaque.addr, align 8
  store ptr %0, ptr %s, align 8
  store i32 0, ptr %i, align 4
  br label %for.cond

for.cond:                                         ; preds = %for.inc, %entry
  %1 = load i32, ptr %i, align 4
  %2 = load ptr, ptr %s, align 8
  %conf = getelementptr inbounds %struct.VirtIOBlockDataPlane, ptr %2, i32 0, i32 2
  %3 = load ptr, ptr %conf, align 8
  %num_queues = getelementptr inbounds %struct.VirtIOBlkConf, ptr %3, i32 0, i32 4
  %4 = load i16, ptr %num_queues, align 4
  %conv = zext i16 %4 to i32
  %cmp = icmp ult i32 %1, %conv
  br i1 %cmp, label %for.body, label %for.end

for.body:                                         ; preds = %for.cond
  %5 = load ptr, ptr %s, align 8
  %vdev = getelementptr inbounds %struct.VirtIOBlockDataPlane, ptr %5, i32 0, i32 3
  %6 = load ptr, ptr %vdev, align 8
  %7 = load i32, ptr %i, align 4
  %call = call ptr @virtio_get_queue(ptr noundef %6, i32 noundef %7)
  store ptr %call, ptr %vq, align 8
  %8 = load ptr, ptr %vq, align 8
  %call2 = call ptr @virtio_queue_get_host_notifier(ptr noundef %8)
  store ptr %call2, ptr %host_notifier, align 8
  %9 = load ptr, ptr %vq, align 8
  %10 = load ptr, ptr %s, align 8
  %ctx = getelementptr inbounds %struct.VirtIOBlockDataPlane, ptr %10, i32 0, i32 5
  %11 = load ptr, ptr %ctx, align 8
  call void @virtio_queue_aio_detach_host_notifier(ptr noundef %9, ptr noundef %11)
  %12 = load ptr, ptr %host_notifier, align 8
  call void @virtio_queue_host_notifier_read(ptr noundef %12)
  br label %for.inc

for.inc:                                          ; preds = %for.body
  %13 = load i32, ptr %i, align 4
  %inc = add i32 %13, 1
  store i32 %inc, ptr %i, align 4
  br label %for.cond, !llvm.loop !16

for.end:                                          ; preds = %for.cond
  ret void
}