; Function Attrs: nounwind sspstrong uwtable
define internal void @virtio_blk_data_plane_stop_bh(ptr noundef readonly captures(none) %opaque) #0 {
entry:
  %conf = getelementptr inbounds nuw i8, ptr %opaque, i64 8
  %0 = load ptr, ptr %conf, align 8
  %num_queues6 = getelementptr inbounds nuw i8, ptr %0, i64 108
  %1 = load i16, ptr %num_queues6, align 4
  %cmp8.not = icmp eq i16 %1, 0
  br i1 %cmp8.not, label %for.end, label %for.body.lr.ph

for.body.lr.ph:                                   ; preds = %entry
  %vdev = getelementptr inbounds nuw i8, ptr %opaque, i64 16
  %ctx = getelementptr inbounds nuw i8, ptr %opaque, i64 32
  br label %for.body

for.body:                                         ; preds = %for.body.lr.ph, %for.body
  %i.09 = phi i32 [ 0, %for.body.lr.ph ], [ %inc, %for.body ]
  %2 = load ptr, ptr %vdev, align 8
  %call = tail call ptr @virtio_get_queue(ptr noundef %2, i32 noundef %i.09) #6
  %call2 = tail call ptr @virtio_queue_get_host_notifier(ptr noundef %call) #6
  %3 = load ptr, ptr %ctx, align 8
  tail call void @virtio_queue_aio_detach_host_notifier(ptr noundef %call, ptr noundef %3) #6
  tail call void @virtio_queue_host_notifier_read(ptr noundef %call2) #6
  %inc = add nuw nsw i32 %i.09, 1
  %4 = load ptr, ptr %conf, align 8
  %num_queues = getelementptr inbounds nuw i8, ptr %4, i64 108
  %5 = load i16, ptr %num_queues, align 4
  %conv = zext i16 %5 to i32
  %cmp = icmp samesign ult i32 %inc, %conv
  br i1 %cmp, label %for.body, label %for.end, !llvm.loop !16

for.end:                                          ; preds = %for.body, %entry
  ret void
}